; Function Attrs: mustprogress nounwind uwtable
define internal fastcc void @_ZL24printCountAttributedImplPKN5clang19CountAttributedTypeERN4llvm11raw_ostreamERKNS_14PrintingPolicyE(ptr nocapture noundef readonly %0, ptr noundef nonnull align 8 dereferenceable(48) %1, ptr noundef nonnull align 8 dereferenceable(16) %2) unnamed_addr #0 {
  %4 = alloca %"class.llvm::StringRef", align 8
  %5 = getelementptr inbounds nuw i8, ptr %1, i64 32
  %6 = load ptr, ptr %5, align 8
  %7 = getelementptr inbounds nuw i8, ptr %1, i64 24
  %8 = load ptr, ptr %7, align 8
  %.not.i = icmp ult ptr %6, %8
  br i1 %.not.i, label %11, label %9

9:                                                ; preds = %3
  %10 = tail call noundef nonnull align 8 dereferenceable(48) ptr @_ZN4llvm11raw_ostream5writeEh(ptr noundef nonnull align 8 dereferenceable(48) %1, i8 noundef zeroext 32) #16
  br label %_ZN4llvm11raw_ostreamlsEc.exit

11:                                               ; preds = %3
  %12 = getelementptr inbounds i8, ptr %6, i64 1
  store ptr %12, ptr %5, align 8
  store i8 32, ptr %6, align 1
  br label %_ZN4llvm11raw_ostreamlsEc.exit

_ZN4llvm11raw_ostreamlsEc.exit:                   ; preds = %9, %11
  %13 = getelementptr inbounds nuw i8, ptr %0, i64 16
  %14 = load i32, ptr %13, align 16
  %15 = and i32 %14, 8388608
  %.not26 = icmp eq i32 %15, 0
  %16 = and i32 %14, 16777216
  %.not27 = icmp eq i32 %16, 0
  %17 = load ptr, ptr %7, align 8
  %18 = load ptr, ptr %5, align 8
  %19 = ptrtoint ptr %17 to i64
  %20 = ptrtoint ptr %18 to i64
  %21 = sub i64 %19, %20
  br i1 %.not26, label %37, label %22

22:                                               ; preds = %_ZN4llvm11raw_ostreamlsEc.exit
  br i1 %.not27, label %30, label %23

23:                                               ; preds = %22
  %24 = icmp ult i64 %21, 19
  br i1 %24, label %25, label %27

25:                                               ; preds = %23
  %26 = tail call noundef nonnull align 8 dereferenceable(48) ptr @_ZN4llvm11raw_ostream5writeEPKcm(ptr noundef nonnull align 8 dereferenceable(48) %1, ptr noundef nonnull @.str.55, i64 noundef 19) #16
  br label %_ZN4llvm11raw_ostreamlsEPKc.exit

27:                                               ; preds = %23
  tail call void @llvm.memcpy.p0.p0.i64(ptr noundef nonnull align 1 dereferenceable(19) %18, ptr noundef nonnull align 1 dereferenceable(19) @.str.55, i64 19, i1 false)
  %28 = load ptr, ptr %5, align 8
  %29 = getelementptr inbounds i8, ptr %28, i64 19
  store ptr %29, ptr %5, align 8
  br label %_ZN4llvm11raw_ostreamlsEPKc.exit

30:                                               ; preds = %22
  %31 = icmp ult i64 %21, 11
  br i1 %31, label %32, label %34

32:                                               ; preds = %30
  %33 = tail call noundef nonnull align 8 dereferenceable(48) ptr @_ZN4llvm11raw_ostream5writeEPKcm(ptr noundef nonnull align 8 dereferenceable(48) %1, ptr noundef nonnull @.str.56, i64 noundef 11) #16
  br label %_ZN4llvm11raw_ostreamlsEPKc.exit

34:                                               ; preds = %30
  tail call void @llvm.memcpy.p0.p0.i64(ptr noundef nonnull align 1 dereferenceable(11) %18, ptr noundef nonnull align 1 dereferenceable(11) @.str.56, i64 11, i1 false)
  %35 = load ptr, ptr %5, align 8
  %36 = getelementptr inbounds i8, ptr %35, i64 11
  store ptr %36, ptr %5, align 8
  br label %_ZN4llvm11raw_ostreamlsEPKc.exit

37:                                               ; preds = %_ZN4llvm11raw_ostreamlsEc.exit
  br i1 %.not27, label %45, label %38

38:                                               ; preds = %37
  %39 = icmp ult i64 %21, 21
  br i1 %39, label %40, label %42

40:                                               ; preds = %38
  %41 = tail call noundef nonnull align 8 dereferenceable(48) ptr @_ZN4llvm11raw_ostream5writeEPKcm(ptr noundef nonnull align 8 dereferenceable(48) %1, ptr noundef nonnull @.str.57, i64 noundef 21) #16
  br label %_ZN4llvm11raw_ostreamlsEPKc.exit

42:                                               ; preds = %38
  tail call void @llvm.memcpy.p0.p0.i64(ptr noundef nonnull align 1 dereferenceable(21) %18, ptr noundef nonnull align 1 dereferenceable(21) @.str.57, i64 21, i1 false)
  %43 = load ptr, ptr %5, align 8
  %44 = getelementptr inbounds i8, ptr %43, i64 21
  store ptr %44, ptr %5, align 8
  br label %_ZN4llvm11raw_ostreamlsEPKc.exit

45:                                               ; preds = %37
  %46 = icmp ult i64 %21, 13
  br i1 %46, label %47, label %49

47:                                               ; preds = %45
  %48 = tail call noundef nonnull align 8 dereferenceable(48) ptr @_ZN4llvm11raw_ostream5writeEPKcm(ptr noundef nonnull align 8 dereferenceable(48) %1, ptr noundef nonnull @.str.58, i64 noundef 13) #16
  br label %_ZN4llvm11raw_ostreamlsEPKc.exit

49:                                               ; preds = %45
  tail call void @llvm.memcpy.p0.p0.i64(ptr noundef nonnull align 1 dereferenceable(13) %18, ptr noundef nonnull align 1 dereferenceable(13) @.str.58, i64 13, i1 false)
  %50 = load ptr, ptr %5, align 8
  %51 = getelementptr inbounds i8, ptr %50, i64 13
  store ptr %51, ptr %5, align 8
  br label %_ZN4llvm11raw_ostreamlsEPKc.exit

_ZN4llvm11raw_ostreamlsEPKc.exit:                 ; preds = %49, %47, %42, %40, %34, %32, %27, %25
  %52 = getelementptr inbounds nuw i8, ptr %0, i64 56
  %53 = load ptr, ptr %52, align 8
  %.not = icmp eq ptr %53, null
  br i1 %.not, label %56, label %54

54:                                               ; preds = %_ZN4llvm11raw_ostreamlsEPKc.exit
  store ptr @.str.5, ptr %4, align 8
  %55 = getelementptr inbounds nuw i8, ptr %4, i64 8
  store i64 1, ptr %55, align 8
  tail call void @_ZNK5clang4Stmt11printPrettyERN4llvm11raw_ostreamEPNS_13PrinterHelperERKNS_14PrintingPolicyEjNS1_9StringRefEPKNS_10ASTContextE(ptr noundef nonnull align 8 dereferenceable(8) %53, ptr noundef nonnull align 8 dereferenceable(48) %1, ptr noundef null, ptr noundef nonnull align 8 dereferenceable(16) %2, i32 noundef 0, ptr noundef nonnull byval(%"class.llvm::StringRef") align 8 %4, ptr noundef null) #16
  br label %56

56:                                               ; preds = %54, %_ZN4llvm11raw_ostreamlsEPKc.exit
  %57 = load ptr, ptr %5, align 8
  %58 = load ptr, ptr %7, align 8
  %.not.i23 = icmp ult ptr %57, %58
  br i1 %.not.i23, label %61, label %59

59:                                               ; preds = %56
  %60 = tail call noundef nonnull align 8 dereferenceable(48) ptr @_ZN4llvm11raw_ostream5writeEh(ptr noundef nonnull align 8 dereferenceable(48) %1, i8 noundef zeroext 41) #16
  br label %_ZN4llvm11raw_ostreamlsEc.exit25

61:                                               ; preds = %56
  %62 = getelementptr inbounds i8, ptr %57, i64 1
  store ptr %62, ptr %5, align 8
  store i8 41, ptr %57, align 1
  br label %_ZN4llvm11raw_ostreamlsEc.exit25

_ZN4llvm11raw_ostreamlsEc.exit25:                 ; preds = %59, %61
  ret void
}